ccopy_reg
_reconstructor
p0
(cDatabase
Database
p1
c__builtin__
object
p2
Ntp3
Rp4
(dp5
S'films'
p6
(lp7
g0
(cFilm
Film
p8
g2
Ntp9
Rp10
(dp11
S'duration'
p12
I108
sS'dir_id'
p13
I1
sS'film_id'
p14
I1
sS'name'
p15
S'Somefilm'
p16
sS'country'
p17
S'USA'
p18
sbag0
(g8
g2
Ntp19
Rp20
(dp21
g12
I14
sg13
I2
sg14
I2
sg15
S'Somefilm 2'
p22
sg17
S'Ukraine'
p23
sbag0
(g8
g2
Ntp24
Rp25
(dp26
g12
I130
sg13
I1
sg14
I3
sg15
S'Somefilm 3'
p27
sg17
g23
sbag0
(g8
g2
Ntp28
Rp29
(dp30
g12
I108
sg13
I4
sg14
I4
sg15
S'Good film'
p31
sg17
S'Canada'
p32
sbag0
(g8
g2
Ntp33
Rp34
(dp35
g12
I32
sg13
I3
sg14
I5
sg15
S'Bad film'
p36
sg17
S'Italy'
p37
sbag0
(g8
g2
Ntp38
Rp39
(dp40
g12
I87
sg13
I3
sg14
I6
sg15
S'Norm film'
p41
sg17
S'Ukraine'
p42
sbasS'directors'
p43
(lp44
g0
(cDirector
Director
p45
g2
Ntp46
Rp47
(dp48
S'countFilms'
p49
I17
sg17
g18
sS'age'
p50
I64
sg15
S'Stiven Spielberg'
p51
sS'd_id'
p52
I1
sbag0
(g45
g2
Ntp53
Rp54
(dp55
g49
I85
sg17
g23
sg50
I105
sg15
S'Igor Sikorsky'
p56
sg52
I2
sbag0
(g45
g2
Ntp57
Rp58
(dp59
g49
I16
sg17
S'United Kingdom'
p60
sg50
I48
sg15
S'Some Director'
p61
sg52
I3
sbag0
(g45
g2
Ntp62
Rp63
(dp64
g49
I2
sg17
S'Canada'
p65
sg50
I29
sg15
S'Another Director'
p66
sg52
I4
sbasb.